target datalayout = "e-m:e-p270:32:32-p271:32:32-p272:64:64-i64:64-i128:128-f80:128-n8:16:32:64-S128"
target triple = "x86_64-pc-linux-gnu"

%struct.anon = type { i32, [0 x i8] }
%struct.FunctionCallInfoBaseData = type { ptr, ptr, ptr, i32, i8, i16, [0 x %struct.NullableDatum] }
%struct.NullableDatum = type { i64, i8 }

@.str.2 = private unnamed_addr constant [10 x i8] c"varlena.c\00", align 1
@.str.7 = private unnamed_addr constant [39 x i8] c"index %lld out of valid range, 0..%lld\00", align 1
@__func__.byteaSetBit = private unnamed_addr constant [12 x i8] c"byteaSetBit\00", align 1
@.str.8 = private unnamed_addr constant [23 x i8] c"new bit must be 0 or 1\00", align 1

; Function Attrs: inlinehint nounwind uwtable
define internal i64 @PointerGetDatum(ptr noundef %0) #0 {
  %2 = alloca ptr, align 8
  store ptr %0, ptr %2, align 8
  %3 = load ptr, ptr %2, align 8
  %4 = ptrtoint ptr %3 to i64
  ret i64 %4
}

; Function Attrs: inlinehint nounwind uwtable
define internal i32 @DatumGetInt32(i64 noundef %0) #0 {
  %2 = alloca i64, align 8
  store i64 %0, ptr %2, align 8
  %3 = load i64, ptr %2, align 8
  %4 = trunc i64 %3 to i32
  ret i32 %4
}

; Function Attrs: inlinehint nounwind uwtable
define internal i64 @DatumGetInt64(i64 noundef %0) #0 {
  %2 = alloca i64, align 8
  store i64 %0, ptr %2, align 8
  %3 = load i64, ptr %2, align 8
  ret i64 %3
}

; Function Attrs: inlinehint nounwind uwtable
define internal ptr @DatumGetPointer(i64 noundef %0) #0 {
  %2 = alloca i64, align 8
  store i64 %0, ptr %2, align 8
  %3 = load i64, ptr %2, align 8
  %4 = inttoptr i64 %3 to ptr
  ret ptr %4
}

; Function Attrs: nounwind uwtable
define dso_local i64 @byteaSetBit(ptr noundef %0) #1 {
  %2 = alloca ptr, align 8
  %3 = alloca ptr, align 8
  %4 = alloca i64, align 8
  %5 = alloca i32, align 4
  %6 = alloca i32, align 4
  %7 = alloca i32, align 4
  %8 = alloca i32, align 4
  %9 = alloca i32, align 4
  %10 = alloca i32, align 4
  store ptr %0, ptr %2, align 8
  call void @llvm.lifetime.start.p0(i64 8, ptr %3) #13
  %11 = load ptr, ptr %2, align 8
  %12 = getelementptr inbounds nuw %struct.FunctionCallInfoBaseData, ptr %11, i32 0, i32 6
  %13 = getelementptr inbounds [0 x %struct.NullableDatum], ptr %12, i64 0, i64 0
  %14 = getelementptr inbounds nuw %struct.NullableDatum, ptr %13, i32 0, i32 0
  %15 = load i64, ptr %14, align 8
  %16 = call ptr @DatumGetPointer(i64 noundef %15)
  %17 = call ptr @pg_detoast_datum_copy(ptr noundef %16)
  store ptr %17, ptr %3, align 8
  call void @llvm.lifetime.start.p0(i64 8, ptr %4) #13
  %18 = load ptr, ptr %2, align 8
  %19 = getelementptr inbounds nuw %struct.FunctionCallInfoBaseData, ptr %18, i32 0, i32 6
  %20 = getelementptr inbounds [0 x %struct.NullableDatum], ptr %19, i64 0, i64 1
  %21 = getelementptr inbounds nuw %struct.NullableDatum, ptr %20, i32 0, i32 0
  %22 = load i64, ptr %21, align 8
  %23 = call i64 @DatumGetInt64(i64 noundef %22)
  store i64 %23, ptr %4, align 8
  call void @llvm.lifetime.start.p0(i64 4, ptr %5) #13
  %24 = load ptr, ptr %2, align 8
  %25 = getelementptr inbounds nuw %struct.FunctionCallInfoBaseData, ptr %24, i32 0, i32 6
  %26 = getelementptr inbounds [0 x %struct.NullableDatum], ptr %25, i64 0, i64 2
  %27 = getelementptr inbounds nuw %struct.NullableDatum, ptr %26, i32 0, i32 0
  %28 = load i64, ptr %27, align 8
  %29 = call i32 @DatumGetInt32(i64 noundef %28)
  store i32 %29, ptr %5, align 4
  call void @llvm.lifetime.start.p0(i64 4, ptr %6) #13
  call void @llvm.lifetime.start.p0(i64 4, ptr %7) #13
  call void @llvm.lifetime.start.p0(i64 4, ptr %8) #13
  call void @llvm.lifetime.start.p0(i64 4, ptr %9) #13
  call void @llvm.lifetime.start.p0(i64 4, ptr %10) #13
  %30 = load ptr, ptr %3, align 8
  %31 = getelementptr inbounds nuw %struct.anon, ptr %30, i32 0, i32 0
  %32 = load i32, ptr %31, align 4
  %33 = lshr i32 %32, 2
  %34 = and i32 %33, 1073741823
  %35 = sub i32 %34, 4
  store i32 %35, ptr %6, align 4
  %36 = load i64, ptr %4, align 8
  %37 = icmp slt i64 %36, 0
  br i1 %37, label %44, label %38

38:                                               ; preds = %1
  %39 = load i64, ptr %4, align 8
  %40 = load i32, ptr %6, align 4
  %41 = sext i32 %40 to i64
  %42 = mul i64 %41, 8
  %43 = icmp sge i64 %39, %42
  br i1 %43, label %44, label %61

44:                                               ; preds = %38, %1
  br label %45

45:                                               ; preds = %44
  br i1 true, label %46, label %48

46:                                               ; preds = %45
  %47 = call zeroext i1 @errstart_cold(i32 noundef 21, ptr noundef null) #14
  br i1 %47, label %50, label %58

48:                                               ; preds = %45
  %49 = call zeroext i1 @errstart(i32 noundef 21, ptr noundef null)
  br i1 %49, label %50, label %58

50:                                               ; preds = %48, %46
  %51 = call i32 @errcode(i32 noundef 352845954)
  %52 = load i64, ptr %4, align 8
  %53 = load i32, ptr %6, align 4
  %54 = sext i32 %53 to i64
  %55 = mul i64 %54, 8
  %56 = sub i64 %55, 1
  %57 = call i32 (ptr, ...) @errmsg(ptr noundef @.str.7, i64 noundef %52, i64 noundef %56)
  call void @errfinish(ptr noundef @.str.2, i32 noundef 3300, ptr noundef @__func__.byteaSetBit)
  br label %58

58:                                               ; preds = %50, %48, %46
  unreachable

59:                                               ; No predecessors!
  br label %60

60:                                               ; preds = %59
  br label %61

61:                                               ; preds = %60, %38
  %62 = load i64, ptr %4, align 8
  %63 = sdiv i64 %62, 8
  %64 = trunc i64 %63 to i32
  store i32 %64, ptr %9, align 4
  %65 = load i64, ptr %4, align 8
  %66 = srem i64 %65, 8
  %67 = trunc i64 %66 to i32
  store i32 %67, ptr %10, align 4
  %68 = load i32, ptr %5, align 4
  %69 = icmp ne i32 %68, 0
  br i1 %69, label %70, label %85

70:                                               ; preds = %61
  %71 = load i32, ptr %5, align 4
  %72 = icmp ne i32 %71, 1
  br i1 %72, label %73, label %85

73:                                               ; preds = %70
  br label %74

74:                                               ; preds = %73
  br i1 true, label %75, label %77

75:                                               ; preds = %74
  %76 = call zeroext i1 @errstart_cold(i32 noundef 21, ptr noundef null) #14
  br i1 %76, label %79, label %82

77:                                               ; preds = %74
  %78 = call zeroext i1 @errstart(i32 noundef 21, ptr noundef null)
  br i1 %78, label %79, label %82

79:                                               ; preds = %77, %75
  %80 = call i32 @errcode(i32 noundef 50856066)
  %81 = call i32 (ptr, ...) @errmsg(ptr noundef @.str.8)
  call void @errfinish(ptr noundef @.str.2, i32 noundef 3312, ptr noundef @__func__.byteaSetBit)
  br label %82

82:                                               ; preds = %79, %77, %75
  unreachable

83:                                               ; No predecessors!
  br label %84

84:                                               ; preds = %83
  br label %85

85:                                               ; preds = %84, %70, %61
  %86 = load ptr, ptr %3, align 8
  %87 = getelementptr inbounds nuw %struct.anon, ptr %86, i32 0, i32 1
  %88 = getelementptr inbounds [0 x i8], ptr %87, i64 0, i64 0
  %89 = load i32, ptr %9, align 4
  %90 = sext i32 %89 to i64
  %91 = getelementptr inbounds i8, ptr %88, i64 %90
  %92 = load i8, ptr %91, align 1
  %93 = zext i8 %92 to i32
  store i32 %93, ptr %7, align 4
  %94 = load i32, ptr %5, align 4
  %95 = icmp eq i32 %94, 0
  br i1 %95, label %96, label %102

96:                                               ; preds = %85
  %97 = load i32, ptr %7, align 4
  %98 = load i32, ptr %10, align 4
  %99 = shl i32 1, %98
  %100 = xor i32 %99, -1
  %101 = and i32 %97, %100
  store i32 %101, ptr %8, align 4
  br label %107

102:                                              ; preds = %85
  %103 = load i32, ptr %7, align 4
  %104 = load i32, ptr %10, align 4
  %105 = shl i32 1, %104
  %106 = or i32 %103, %105
  store i32 %106, ptr %8, align 4
  br label %107

107:                                              ; preds = %102, %96
  %108 = load i32, ptr %8, align 4
  %109 = trunc i32 %108 to i8
  %110 = load ptr, ptr %3, align 8
  %111 = getelementptr inbounds nuw %struct.anon, ptr %110, i32 0, i32 1
  %112 = getelementptr inbounds [0 x i8], ptr %111, i64 0, i64 0
  %113 = load i32, ptr %9, align 4
  %114 = sext i32 %113 to i64
  %115 = getelementptr inbounds i8, ptr %112, i64 %114
  store i8 %109, ptr %115, align 1
  %116 = load ptr, ptr %3, align 8
  %117 = call i64 @PointerGetDatum(ptr noundef %116)
  call void @llvm.lifetime.end.p0(i64 4, ptr %10) #13
  call void @llvm.lifetime.end.p0(i64 4, ptr %9) #13
  call void @llvm.lifetime.end.p0(i64 4, ptr %8) #13
  call void @llvm.lifetime.end.p0(i64 4, ptr %7) #13
  call void @llvm.lifetime.end.p0(i64 4, ptr %6) #13
  call void @llvm.lifetime.end.p0(i64 4, ptr %5) #13
  call void @llvm.lifetime.end.p0(i64 8, ptr %4) #13
  call void @llvm.lifetime.end.p0(i64 8, ptr %3) #13
  ret i64 %117
}