; Function Attrs: nounwind uwtable
define dso_local noundef i64 @byteaSetBit(ptr noundef readonly captures(none) %0) local_unnamed_addr #0 {
  %2 = getelementptr inbounds nuw i8, ptr %0, i64 32
  %3 = load i64, ptr %2, align 8
  %4 = inttoptr i64 %3 to ptr
  %5 = tail call ptr @pg_detoast_datum_copy(ptr noundef %4) #19
  %6 = getelementptr inbounds nuw i8, ptr %0, i64 48
  %7 = load i64, ptr %6, align 8
  %8 = getelementptr inbounds nuw i8, ptr %0, i64 64
  %9 = load i64, ptr %8, align 8
  %10 = trunc i64 %9 to i32
  %11 = load i32, ptr %5, align 4
  %12 = lshr i32 %11, 2
  %13 = add nsw i32 %12, -4
  %14 = icmp sgt i64 %7, -1
  %.pre = sext i32 %13 to i64
  %.pre25 = shl nsw i64 %.pre, 3
  %.not = icmp slt i64 %7, %.pre25
  %or.cond27 = select i1 %14, i1 %.not, i1 false
  br i1 %or.cond27, label %19, label %._crit_edge

._crit_edge:                                      ; preds = %1
  %15 = tail call zeroext i1 @errstart_cold(i32 noundef 21, ptr noundef null) #20
  tail call void @llvm.assume(i1 %15)
  %16 = tail call i32 @errcode(i32 noundef 352845954) #19
  %17 = add nsw i64 %.pre25, -1
  %18 = tail call i32 (ptr, ...) @errmsg(ptr noundef nonnull @.str.7, i64 noundef %7, i64 noundef %17) #19
  tail call void @errfinish(ptr noundef nonnull @.str.2, i32 noundef 3300, ptr noundef nonnull @__func__.byteaSetBit) #19
  unreachable

19:                                               ; preds = %1
  %or.cond = icmp ugt i32 %10, 1
  br i1 %or.cond, label %20, label %24

20:                                               ; preds = %19
  %21 = tail call zeroext i1 @errstart_cold(i32 noundef 21, ptr noundef null) #20
  tail call void @llvm.assume(i1 %21)
  %22 = tail call i32 @errcode(i32 noundef 50856066) #19
  %23 = tail call i32 (ptr, ...) @errmsg(ptr noundef nonnull @.str.8) #19
  tail call void @errfinish(ptr noundef nonnull @.str.2, i32 noundef 3312, ptr noundef nonnull @__func__.byteaSetBit) #19
  unreachable

24:                                               ; preds = %19
  %25 = trunc i64 %7 to i8
  %26 = and i8 %25, 7
  %27 = lshr i64 %7, 3
  %28 = getelementptr inbounds nuw i8, ptr %5, i64 4
  %29 = getelementptr inbounds nuw i8, ptr %28, i64 %27
  %30 = load i8, ptr %29, align 1
  %31 = icmp eq i32 %10, 0
  %32 = shl nuw i8 1, %26
  %33 = xor i8 %32, -1
  %34 = and i8 %30, %33
  %35 = or i8 %30, %32
  %.0 = select i1 %31, i8 %34, i8 %35
  store i8 %.0, ptr %29, align 1
  %36 = ptrtoint ptr %5 to i64
  ret i64 %36
}